; Function Attrs: mustprogress nounwind uwtable
define dso_local void @_ZN4llvm14MachineOperand14printSubRegIdxERNS_11raw_ostreamEmPKNS_18TargetRegisterInfoE(ptr noundef nonnull align 8 dereferenceable(48) %0, i64 noundef %1, ptr noundef readonly %2) local_unnamed_addr #0 align 2 {
  %4 = getelementptr inbounds nuw i8, ptr %0, i64 24
  %5 = load ptr, ptr %4, align 8
  %6 = getelementptr inbounds nuw i8, ptr %0, i64 32
  %7 = load ptr, ptr %6, align 8
  %8 = ptrtoint ptr %5 to i64
  %9 = ptrtoint ptr %7 to i64
  %10 = sub i64 %8, %9
  %11 = icmp ult i64 %10, 8
  br i1 %11, label %12, label %14

12:                                               ; preds = %3
  %13 = tail call noundef nonnull align 8 dereferenceable(48) ptr @_ZN4llvm11raw_ostream5writeEPKcm(ptr noundef nonnull align 8 dereferenceable(48) %0, ptr noundef nonnull @.str.2, i64 noundef 8) #21
  br label %_ZN4llvm11raw_ostreamlsEPKc.exit

14:                                               ; preds = %3
  store i64 3343752790298424101, ptr %7, align 1
  %15 = load ptr, ptr %6, align 8
  %16 = getelementptr inbounds nuw i8, ptr %15, i64 8
  store ptr %16, ptr %6, align 8
  br label %_ZN4llvm11raw_ostreamlsEPKc.exit

_ZN4llvm11raw_ostreamlsEPKc.exit:                 ; preds = %12, %14
  %17 = icmp ne ptr %2, null
  %18 = icmp ne i64 %1, 0
  %or.cond = and i1 %18, %17
  br i1 %or.cond, label %19, label %44

19:                                               ; preds = %_ZN4llvm11raw_ostreamlsEPKc.exit
  %20 = getelementptr inbounds nuw i8, ptr %2, i64 96
  %21 = load i32, ptr %20, align 8
  %22 = zext i32 %21 to i64
  %23 = icmp ult i64 %1, %22
  br i1 %23, label %24, label %44

24:                                               ; preds = %19
  %25 = getelementptr inbounds nuw i8, ptr %2, i64 240
  %26 = load ptr, ptr %25, align 8
  %27 = add nuw nsw i64 %1, 4294967295
  %28 = and i64 %27, 4294967295
  %29 = getelementptr inbounds nuw ptr, ptr %26, i64 %28
  %30 = load ptr, ptr %29, align 8
  %.not.i.i = icmp eq ptr %30, null
  br i1 %.not.i.i, label %_ZN4llvm11raw_ostreamlsEPKc.exit13, label %_ZN4llvm9StringRefC2EPKc.exit.i

_ZN4llvm9StringRefC2EPKc.exit.i:                  ; preds = %24
  %31 = tail call noundef i64 @strlen(ptr noundef nonnull dereferenceable(1) %30) #21
  %32 = load ptr, ptr %4, align 8
  %33 = load ptr, ptr %6, align 8
  %34 = ptrtoint ptr %32 to i64
  %35 = ptrtoint ptr %33 to i64
  %36 = sub i64 %34, %35
  %37 = icmp ugt i64 %31, %36
  br i1 %37, label %38, label %40

38:                                               ; preds = %_ZN4llvm9StringRefC2EPKc.exit.i
  %39 = tail call noundef nonnull align 8 dereferenceable(48) ptr @_ZN4llvm11raw_ostream5writeEPKcm(ptr noundef nonnull align 8 dereferenceable(48) %0, ptr noundef nonnull %30, i64 noundef %31) #21
  br label %_ZN4llvm11raw_ostreamlsEPKc.exit13

40:                                               ; preds = %_ZN4llvm9StringRefC2EPKc.exit.i
  %.not.i2.i11 = icmp eq i64 %31, 0
  br i1 %.not.i2.i11, label %_ZN4llvm11raw_ostreamlsEPKc.exit13, label %41

41:                                               ; preds = %40
  tail call void @llvm.memcpy.p0.p0.i64(ptr align 1 %33, ptr nonnull align 1 %30, i64 %31, i1 false)
  %42 = load ptr, ptr %6, align 8
  %43 = getelementptr inbounds i8, ptr %42, i64 %31
  store ptr %43, ptr %6, align 8
  br label %_ZN4llvm11raw_ostreamlsEPKc.exit13

44:                                               ; preds = %19, %_ZN4llvm11raw_ostreamlsEPKc.exit
  %45 = tail call noundef nonnull align 8 dereferenceable(48) ptr @_ZN4llvm11raw_ostreamlsEm(ptr noundef nonnull align 8 dereferenceable(48) %0, i64 noundef %1) #21
  br label %_ZN4llvm11raw_ostreamlsEPKc.exit13

_ZN4llvm11raw_ostreamlsEPKc.exit13:               ; preds = %41, %40, %38, %24, %44
  ret void
}